; Function Attrs: mustprogress uwtable
define hidden noundef zeroext i1 @_ZNK12z3_exception14has_error_codeEv(ptr noundef nonnull align 8 dereferenceable(8) %this) local_unnamed_addr #4 align 2 {
entry:
  %vtable = load ptr, ptr %this, align 8
  %vfn = getelementptr inbounds i8, ptr %vtable, i64 24
  %0 = load ptr, ptr %vfn, align 8
  %call = tail call noundef i32 %0(ptr noundef nonnull align 8 dereferenceable(8) %this)
  %cmp = icmp ne i32 %call, 0
  ret i1 %cmp
}